target datalayout = "e-m:e-p270:32:32-p271:32:32-p272:64:64-i64:64-i128:128-f80:128-n8:16:32:64-S128"
target triple = "x86_64-pc-linux-gnu"

@hf_link_type = internal global i32 0, align 4
@hf_network_id = internal global i32 0, align 4
@hf_net_aux_id = internal global i32 0, align 4
@hf_sig_strength_dbm = internal global i32 0, align 4
@hf_sig_strength_per = internal global i32 0, align 4
@hf_sinr = internal global i32 0, align 4
@hf_link_data_rate = internal global i32 0, align 4
@hf_mihcap = internal global i32 0, align 4
@hf_net_caps = internal global i32 0, align 4
@ett_mihcap_bitmap = internal global i32 0, align 4
@ett_net_caps_bitmap = internal global i32 0, align 4
@mihcap_fields = internal constant [4 x ptr] [ptr @hf_mihcap_es, ptr @hf_mihcap_cs, ptr @hf_mihcap_is, ptr null], align 16
@net_caps_fields = internal constant [11 x ptr] [ptr @hf_net_caps_sec, ptr @hf_net_caps_qos0, ptr @hf_net_caps_qos1, ptr @hf_net_caps_qos2, ptr @hf_net_caps_qos3, ptr @hf_net_caps_qos4, ptr @hf_net_caps_qos5, ptr @hf_net_caps_ia, ptr @hf_net_caps_es, ptr @hf_net_caps_mihcap, ptr null], align 16

; Function Attrs: null_pointer_is_valid sspstrong uwtable
define internal signext i16 @dissect_link_id(ptr noundef %0, i16 noundef signext %1, ptr noundef %2) #0 {
  %4 = alloca ptr, align 8
  %5 = alloca i16, align 2
  %6 = alloca ptr, align 8
  %7 = alloca i16, align 2
  store ptr %0, ptr %4, align 8
  store i16 %1, ptr %5, align 2
  store ptr %2, ptr %6, align 8
  call void @llvm.lifetime.start.p0(i64 2, ptr %7) #5
  store i16 0, ptr %7, align 2
  %8 = load ptr, ptr %6, align 8
  %9 = load i32, ptr @hf_link_type, align 4
  %10 = load ptr, ptr %4, align 8
  %11 = load i16, ptr %5, align 2
  %12 = sext i16 %11 to i32
  %13 = call ptr @proto_tree_add_item(ptr noundef %8, i32 noundef %9, ptr noundef %10, i32 noundef %12, i32 noundef 1, i32 noundef 0)
  %14 = load ptr, ptr %4, align 8
  %15 = load i16, ptr %5, align 2
  %16 = sext i16 %15 to i32
  %17 = add i32 %16, 1
  %18 = trunc i32 %17 to i16
  %19 = load ptr, ptr %6, align 8
  %20 = call signext i16 @dissect_link_addr(ptr noundef %14, i16 noundef signext %18, ptr noundef %19)
  store i16 %20, ptr %7, align 2
  %21 = load i16, ptr %7, align 2
  call void @llvm.lifetime.end.p0(i64 2, ptr %7) #5
  ret i16 %21
}

; Function Attrs: null_pointer_is_valid sspstrong uwtable
define internal signext i16 @dissect_link_det_info(ptr noundef %0, i16 noundef signext %1, ptr noundef %2) #0 {
  %4 = alloca ptr, align 8
  %5 = alloca i16, align 2
  %6 = alloca ptr, align 8
  %7 = alloca i8, align 1
  store ptr %0, ptr %4, align 8
  store i16 %1, ptr %5, align 2
  store ptr %2, ptr %6, align 8
  call void @llvm.lifetime.start.p0(i64 1, ptr %7) #5
  store i8 0, ptr %7, align 1
  %8 = load ptr, ptr %4, align 8
  %9 = load i16, ptr %5, align 2
  %10 = load ptr, ptr %6, align 8
  %11 = call signext i16 @dissect_link_id(ptr noundef %8, i16 noundef signext %9, ptr noundef %10)
  store i16 %11, ptr %5, align 2
  %12 = load ptr, ptr %4, align 8
  %13 = load i16, ptr %5, align 2
  %14 = sext i16 %13 to i32
  %15 = call zeroext i8 @tvb_get_uint8(ptr noundef %12, i32 noundef %14)
  %16 = icmp ne i8 %15, 0
  br i1 %16, label %17, label %26

17:                                               ; preds = %3
  %18 = load i16, ptr %5, align 2
  %19 = add i16 %18, 1
  store i16 %19, ptr %5, align 2
  %20 = load ptr, ptr %4, align 8
  %21 = load i16, ptr %5, align 2
  %22 = load ptr, ptr %6, align 8
  %23 = call signext i16 @dissect_link_addr(ptr noundef %20, i16 noundef signext %21, ptr noundef %22)
  store i16 %23, ptr %5, align 2
  %24 = load i16, ptr %5, align 2
  %25 = add i16 %24, -1
  store i16 %25, ptr %5, align 2
  br label %26

26:                                               ; preds = %17, %3
  %27 = load i16, ptr %5, align 2
  %28 = add i16 %27, 1
  store i16 %28, ptr %5, align 2
  %29 = load ptr, ptr %4, align 8
  %30 = load i16, ptr %5, align 2
  %31 = sext i16 %30 to i32
  %32 = call zeroext i8 @tvb_get_uint8(ptr noundef %29, i32 noundef %31)
  store i8 %32, ptr %7, align 1
  %33 = load ptr, ptr %6, align 8
  %34 = load i32, ptr @hf_network_id, align 4
  %35 = load ptr, ptr %4, align 8
  %36 = load i16, ptr %5, align 2
  %37 = sext i16 %36 to i32
  %38 = add i32 %37, 1
  %39 = load i8, ptr %7, align 1
  %40 = zext i8 %39 to i32
  %41 = call ptr @proto_tree_add_item(ptr noundef %33, i32 noundef %34, ptr noundef %35, i32 noundef %38, i32 noundef %40, i32 noundef 0)
  %42 = load i8, ptr %7, align 1
  %43 = zext i8 %42 to i32
  %44 = add i32 %43, 1
  %45 = load i16, ptr %5, align 2
  %46 = sext i16 %45 to i32
  %47 = add i32 %46, %44
  %48 = trunc i32 %47 to i16
  store i16 %48, ptr %5, align 2
  %49 = load ptr, ptr %4, align 8
  %50 = load i16, ptr %5, align 2
  %51 = sext i16 %50 to i32
  %52 = call zeroext i8 @tvb_get_uint8(ptr noundef %49, i32 noundef %51)
  store i8 %52, ptr %7, align 1
  %53 = load ptr, ptr %6, align 8
  %54 = load i32, ptr @hf_net_aux_id, align 4
  %55 = load ptr, ptr %4, align 8
  %56 = load i16, ptr %5, align 2
  %57 = sext i16 %56 to i32
  %58 = add i32 %57, 1
  %59 = load i8, ptr %7, align 1
  %60 = zext i8 %59 to i32
  %61 = call ptr @proto_tree_add_item(ptr noundef %53, i32 noundef %54, ptr noundef %55, i32 noundef %58, i32 noundef %60, i32 noundef 0)
  %62 = load i8, ptr %7, align 1
  %63 = zext i8 %62 to i32
  %64 = add i32 %63, 1
  %65 = load i16, ptr %5, align 2
  %66 = sext i16 %65 to i32
  %67 = add i32 %66, %64
  %68 = trunc i32 %67 to i16
  store i16 %68, ptr %5, align 2
  %69 = load ptr, ptr %4, align 8
  %70 = load i16, ptr %5, align 2
  %71 = sext i16 %70 to i32
  %72 = call zeroext i8 @tvb_get_uint8(ptr noundef %69, i32 noundef %71)
  %73 = icmp ne i8 %72, 0
  br i1 %73, label %74, label %82

74:                                               ; preds = %26
  %75 = load ptr, ptr %6, align 8
  %76 = load i32, ptr @hf_sig_strength_per, align 4
  %77 = load ptr, ptr %4, align 8
  %78 = load i16, ptr %5, align 2
  %79 = sext i16 %78 to i32
  %80 = add i32 %79, 1
  %81 = call ptr @proto_tree_add_item(ptr noundef %75, i32 noundef %76, ptr noundef %77, i32 noundef %80, i32 noundef 1, i32 noundef 0)
  br label %90

82:                                               ; preds = %26
  %83 = load ptr, ptr %6, align 8
  %84 = load i32, ptr @hf_sig_strength_dbm, align 4
  %85 = load ptr, ptr %4, align 8
  %86 = load i16, ptr %5, align 2
  %87 = sext i16 %86 to i32
  %88 = add i32 %87, 1
  %89 = call ptr @proto_tree_add_item(ptr noundef %83, i32 noundef %84, ptr noundef %85, i32 noundef %88, i32 noundef 1, i32 noundef 0)
  br label %90

90:                                               ; preds = %82, %74
  %91 = load i16, ptr %5, align 2
  %92 = sext i16 %91 to i32
  %93 = add i32 %92, 2
  %94 = trunc i32 %93 to i16
  store i16 %94, ptr %5, align 2
  %95 = load ptr, ptr %6, align 8
  %96 = load i32, ptr @hf_sinr, align 4
  %97 = load ptr, ptr %4, align 8
  %98 = load i16, ptr %5, align 2
  %99 = sext i16 %98 to i32
  %100 = call ptr @proto_tree_add_item(ptr noundef %95, i32 noundef %96, ptr noundef %97, i32 noundef %99, i32 noundef 2, i32 noundef 0)
  %101 = load i16, ptr %5, align 2
  %102 = sext i16 %101 to i32
  %103 = add i32 %102, 2
  %104 = trunc i32 %103 to i16
  store i16 %104, ptr %5, align 2
  %105 = load ptr, ptr %6, align 8
  %106 = load i32, ptr @hf_link_data_rate, align 4
  %107 = load ptr, ptr %4, align 8
  %108 = load i16, ptr %5, align 2
  %109 = sext i16 %108 to i32
  %110 = call ptr @proto_tree_add_item(ptr noundef %105, i32 noundef %106, ptr noundef %107, i32 noundef %109, i32 noundef 4, i32 noundef 0)
  %111 = load i16, ptr %5, align 2
  %112 = sext i16 %111 to i32
  %113 = add i32 %112, 4
  %114 = trunc i32 %113 to i16
  store i16 %114, ptr %5, align 2
  %115 = load ptr, ptr %6, align 8
  %116 = load ptr, ptr %4, align 8
  %117 = load i16, ptr %5, align 2
  %118 = sext i16 %117 to i32
  %119 = load i32, ptr @hf_mihcap, align 4
  %120 = load i32, ptr @ett_mihcap_bitmap, align 4
  %121 = call ptr @proto_tree_add_bitmask(ptr noundef %115, ptr noundef %116, i32 noundef %118, i32 noundef %119, i32 noundef %120, ptr noundef @mihcap_fields, i32 noundef 0)
  %122 = load i16, ptr %5, align 2
  %123 = add i16 %122, 1
  store i16 %123, ptr %5, align 2
  %124 = load ptr, ptr %6, align 8
  %125 = load ptr, ptr %4, align 8
  %126 = load i16, ptr %5, align 2
  %127 = sext i16 %126 to i32
  %128 = load i32, ptr @hf_net_caps, align 4
  %129 = load i32, ptr @ett_net_caps_bitmap, align 4
  %130 = call ptr @proto_tree_add_bitmask(ptr noundef %124, ptr noundef %125, i32 noundef %127, i32 noundef %128, i32 noundef %129, ptr noundef @net_caps_fields, i32 noundef 0)
  %131 = load i16, ptr %5, align 2
  %132 = sext i16 %131 to i32
  %133 = add i32 %132, 4
  %134 = trunc i32 %133 to i16
  store i16 %134, ptr %5, align 2
  %135 = load i16, ptr %5, align 2
  call void @llvm.lifetime.end.p0(i64 1, ptr %7) #5
  ret i16 %135
}