; Function Attrs: null_pointer_is_valid sspstrong uwtable
define internal signext i16 @dissect_link_det_info(ptr noundef %0, i16 noundef signext %1, ptr noundef %2) #0 {
  %4 = load i32, ptr @hf_link_type, align 4
  %5 = sext i16 %1 to i32
  %6 = tail call ptr @proto_tree_add_item(ptr noundef %2, i32 noundef %4, ptr noundef %0, i32 noundef %5, i32 noundef 1, i32 noundef 0)
  %7 = add i16 %1, 1
  %8 = tail call fastcc signext i16 @dissect_link_addr(ptr noundef %0, i16 noundef signext %7, ptr noundef %2)
  %9 = sext i16 %8 to i32
  %10 = tail call zeroext i8 @tvb_get_uint8(ptr noundef %0, i32 noundef %9)
  %.not = icmp eq i8 %10, 0
  br i1 %.not, label %15, label %11

11:                                               ; preds = %3
  %12 = add i16 %8, 1
  %13 = tail call fastcc signext i16 @dissect_link_addr(ptr noundef %0, i16 noundef signext %12, ptr noundef %2)
  %14 = add i16 %13, -1
  br label %15

15:                                               ; preds = %11, %3
  %.0 = phi i16 [ %14, %11 ], [ %8, %3 ]
  %16 = add i16 %.0, 1
  %17 = sext i16 %16 to i32
  %18 = tail call zeroext i8 @tvb_get_uint8(ptr noundef %0, i32 noundef %17)
  %19 = load i32, ptr @hf_network_id, align 4
  %20 = add nsw i32 %17, 1
  %21 = zext i8 %18 to i32
  %22 = tail call ptr @proto_tree_add_item(ptr noundef %2, i32 noundef %19, ptr noundef %0, i32 noundef %20, i32 noundef %21, i32 noundef 0)
  %23 = zext i8 %18 to i16
  %24 = add i16 %.0, 2
  %25 = add i16 %24, %23
  %26 = sext i16 %25 to i32
  %27 = tail call zeroext i8 @tvb_get_uint8(ptr noundef %0, i32 noundef %26)
  %28 = load i32, ptr @hf_net_aux_id, align 4
  %29 = add nsw i32 %26, 1
  %30 = zext i8 %27 to i32
  %31 = tail call ptr @proto_tree_add_item(ptr noundef %2, i32 noundef %28, ptr noundef %0, i32 noundef %29, i32 noundef %30, i32 noundef 0)
  %32 = zext i8 %27 to i16
  %33 = add i16 %25, 1
  %34 = add i16 %33, %32
  %35 = sext i16 %34 to i32
  %36 = tail call zeroext i8 @tvb_get_uint8(ptr noundef %0, i32 noundef %35)
  %.not52 = icmp eq i8 %36, 0
  %37 = add nsw i32 %35, 1
  %hf_sig_strength_dbm.val = load i32, ptr @hf_sig_strength_dbm, align 4
  %hf_sig_strength_per.val = load i32, ptr @hf_sig_strength_per, align 4
  %38 = select i1 %.not52, i32 %hf_sig_strength_dbm.val, i32 %hf_sig_strength_per.val
  %39 = tail call ptr @proto_tree_add_item(ptr noundef %2, i32 noundef %38, ptr noundef %0, i32 noundef %37, i32 noundef 1, i32 noundef 0)
  %40 = add i16 %34, 2
  %41 = load i32, ptr @hf_sinr, align 4
  %42 = sext i16 %40 to i32
  %43 = tail call ptr @proto_tree_add_item(ptr noundef %2, i32 noundef %41, ptr noundef %0, i32 noundef %42, i32 noundef 2, i32 noundef 0)
  %44 = add i16 %34, 4
  %45 = load i32, ptr @hf_link_data_rate, align 4
  %46 = sext i16 %44 to i32
  %47 = tail call ptr @proto_tree_add_item(ptr noundef %2, i32 noundef %45, ptr noundef %0, i32 noundef %46, i32 noundef 4, i32 noundef 0)
  %48 = add i16 %34, 8
  %49 = sext i16 %48 to i32
  %50 = load i32, ptr @hf_mihcap, align 4
  %51 = load i32, ptr @ett_mihcap_bitmap, align 4
  %52 = tail call ptr @proto_tree_add_bitmask(ptr noundef %2, ptr noundef %0, i32 noundef %49, i32 noundef %50, i32 noundef %51, ptr noundef nonnull @mihcap_fields, i32 noundef 0)
  %53 = add i16 %34, 9
  %54 = sext i16 %53 to i32
  %55 = load i32, ptr @hf_net_caps, align 4
  %56 = load i32, ptr @ett_net_caps_bitmap, align 4
  %57 = tail call ptr @proto_tree_add_bitmask(ptr noundef %2, ptr noundef %0, i32 noundef %54, i32 noundef %55, i32 noundef %56, ptr noundef nonnull @net_caps_fields, i32 noundef 0)
  %58 = add i16 %34, 13
  ret i16 %58
}